target datalayout = "e-m:e-p270:32:32-p271:32:32-p272:64:64-i64:64-i128:128-f80:128-n8:16:32:64-S128"
target triple = "x86_64-pc-linux-gnu"

%struct.accept_range = type { i8, i8 }

; Function Attrs: nounwind uwtable
define hidden i32 @file_looks_utf8(ptr noundef %0, i64 noundef %1, ptr noundef %2, ptr noundef %3) #0 {
  %5 = alloca i32, align 4
  %6 = alloca ptr, align 8
  %7 = alloca i64, align 8
  %8 = alloca ptr, align 8
  %9 = alloca ptr, align 8
  %10 = alloca i64, align 8
  %11 = alloca i32, align 4
  %12 = alloca i64, align 8
  %13 = alloca i32, align 4
  %14 = alloca i32, align 4
  %15 = alloca i32, align 4
  %16 = alloca i32, align 4
  %17 = alloca i8, align 1
  %18 = alloca ptr, align 8
  store ptr %0, ptr %6, align 8, !tbaa !23
  store i64 %1, ptr %7, align 8, !tbaa !26
  store ptr %2, ptr %8, align 8, !tbaa !13
  store ptr %3, ptr %9, align 8, !tbaa !13
  call void @llvm.lifetime.start.p0(i64 8, ptr %10) #6
  call void @llvm.lifetime.start.p0(i64 4, ptr %11) #6
  call void @llvm.lifetime.start.p0(i64 8, ptr %12) #6
  call void @llvm.lifetime.start.p0(i64 4, ptr %13) #6
  store i32 0, ptr %13, align 4, !tbaa !27
  call void @llvm.lifetime.start.p0(i64 4, ptr %14) #6
  store i32 0, ptr %14, align 4, !tbaa !27
  %19 = load ptr, ptr %8, align 8, !tbaa !13
  %20 = icmp ne ptr %19, null
  br i1 %20, label %21, label %23

21:                                               ; preds = %4
  %22 = load ptr, ptr %9, align 8, !tbaa !13
  store i64 0, ptr %22, align 8, !tbaa !26
  br label %23

23:                                               ; preds = %21, %4
  store i64 0, ptr %10, align 8, !tbaa !26
  br label %24

24:                                               ; preds = %258, %23
  %25 = load i64, ptr %10, align 8, !tbaa !26
  %26 = load i64, ptr %7, align 8, !tbaa !26
  %27 = icmp ult i64 %25, %26
  br i1 %27, label %28, label %261

28:                                               ; preds = %24
  %29 = load ptr, ptr %6, align 8, !tbaa !23
  %30 = load i64, ptr %10, align 8, !tbaa !26
  %31 = getelementptr inbounds nuw i8, ptr %29, i64 %30
  %32 = load i8, ptr %31, align 1, !tbaa !35
  %33 = zext i8 %32 to i32
  %34 = and i32 %33, 128
  %35 = icmp eq i32 %34, 0
  br i1 %35, label %36, label %62

36:                                               ; preds = %28
  %37 = load ptr, ptr %6, align 8, !tbaa !23
  %38 = load i64, ptr %10, align 8, !tbaa !26
  %39 = getelementptr inbounds nuw i8, ptr %37, i64 %38
  %40 = load i8, ptr %39, align 1, !tbaa !35
  %41 = zext i8 %40 to i64
  %42 = getelementptr inbounds nuw [256 x i8], ptr @text_chars, i64 0, i64 %41
  %43 = load i8, ptr %42, align 1, !tbaa !35
  %44 = sext i8 %43 to i32
  %45 = icmp ne i32 %44, 1
  br i1 %45, label %46, label %47

46:                                               ; preds = %36
  store i32 1, ptr %14, align 4, !tbaa !27
  br label %47

47:                                               ; preds = %46, %36
  %48 = load ptr, ptr %8, align 8, !tbaa !13
  %49 = icmp ne ptr %48, null
  br i1 %49, label %50, label %61

50:                                               ; preds = %47
  %51 = load ptr, ptr %6, align 8, !tbaa !23
  %52 = load i64, ptr %10, align 8, !tbaa !26
  %53 = getelementptr inbounds nuw i8, ptr %51, i64 %52
  %54 = load i8, ptr %53, align 1, !tbaa !35
  %55 = zext i8 %54 to i64
  %56 = load ptr, ptr %8, align 8, !tbaa !13
  %57 = load ptr, ptr %9, align 8, !tbaa !13
  %58 = load i64, ptr %57, align 8, !tbaa !26
  %59 = add i64 %58, 1
  store i64 %59, ptr %57, align 8, !tbaa !26
  %60 = getelementptr inbounds nuw i64, ptr %56, i64 %58
  store i64 %55, ptr %60, align 8, !tbaa !26
  br label %61

61:                                               ; preds = %50, %47
  br label %257

62:                                               ; preds = %28
  %63 = load ptr, ptr %6, align 8, !tbaa !23
  %64 = load i64, ptr %10, align 8, !tbaa !26
  %65 = getelementptr inbounds nuw i8, ptr %63, i64 %64
  %66 = load i8, ptr %65, align 1, !tbaa !35
  %67 = zext i8 %66 to i32
  %68 = and i32 %67, 64
  %69 = icmp eq i32 %68, 0
  br i1 %69, label %70, label %71

70:                                               ; preds = %62
  store i32 -1, ptr %5, align 4
  store i32 1, ptr %15, align 4
  br label %272

71:                                               ; preds = %62
  call void @llvm.lifetime.start.p0(i64 4, ptr %16) #6
  call void @llvm.lifetime.start.p0(i64 1, ptr %17) #6
  %72 = load ptr, ptr %6, align 8, !tbaa !23
  %73 = load i64, ptr %10, align 8, !tbaa !26
  %74 = getelementptr inbounds nuw i8, ptr %72, i64 %73
  %75 = load i8, ptr %74, align 1, !tbaa !35
  %76 = zext i8 %75 to i64
  %77 = getelementptr inbounds nuw [256 x i8], ptr @first, i64 0, i64 %76
  %78 = load i8, ptr %77, align 1, !tbaa !35
  store i8 %78, ptr %17, align 1, !tbaa !35
  call void @llvm.lifetime.start.p0(i64 8, ptr %18) #6
  %79 = load i8, ptr %17, align 1, !tbaa !35
  %80 = zext i8 %79 to i32
  %81 = lshr i32 %80, 4
  %82 = zext i32 %81 to i64
  %83 = getelementptr inbounds nuw [16 x %struct.accept_range], ptr @accept_ranges, i64 0, i64 %82
  store ptr %83, ptr %18, align 8, !tbaa !36
  %84 = load i8, ptr %17, align 1, !tbaa !35
  %85 = zext i8 %84 to i32
  %86 = icmp eq i32 %85, 241
  br i1 %86, label %87, label %88

87:                                               ; preds = %71
  store i32 -1, ptr %5, align 4
  store i32 1, ptr %15, align 4
  br label %253

88:                                               ; preds = %71
  %89 = load ptr, ptr %6, align 8, !tbaa !23
  %90 = load i64, ptr %10, align 8, !tbaa !26
  %91 = getelementptr inbounds nuw i8, ptr %89, i64 %90
  %92 = load i8, ptr %91, align 1, !tbaa !35
  %93 = zext i8 %92 to i32
  %94 = and i32 %93, 32
  %95 = icmp eq i32 %94, 0
  br i1 %95, label %96, label %104

96:                                               ; preds = %88
  %97 = load ptr, ptr %6, align 8, !tbaa !23
  %98 = load i64, ptr %10, align 8, !tbaa !26
  %99 = getelementptr inbounds nuw i8, ptr %97, i64 %98
  %100 = load i8, ptr %99, align 1, !tbaa !35
  %101 = zext i8 %100 to i32
  %102 = and i32 %101, 31
  %103 = sext i32 %102 to i64
  store i64 %103, ptr %12, align 8, !tbaa !26
  store i32 1, ptr %16, align 4, !tbaa !27
  br label %173

104:                                              ; preds = %88
  %105 = load ptr, ptr %6, align 8, !tbaa !23
  %106 = load i64, ptr %10, align 8, !tbaa !26
  %107 = getelementptr inbounds nuw i8, ptr %105, i64 %106
  %108 = load i8, ptr %107, align 1, !tbaa !35
  %109 = zext i8 %108 to i32
  %110 = and i32 %109, 16
  %111 = icmp eq i32 %110, 0
  br i1 %111, label %112, label %120

112:                                              ; preds = %104
  %113 = load ptr, ptr %6, align 8, !tbaa !23
  %114 = load i64, ptr %10, align 8, !tbaa !26
  %115 = getelementptr inbounds nuw i8, ptr %113, i64 %114
  %116 = load i8, ptr %115, align 1, !tbaa !35
  %117 = zext i8 %116 to i32
  %118 = and i32 %117, 15
  %119 = sext i32 %118 to i64
  store i64 %119, ptr %12, align 8, !tbaa !26
  store i32 2, ptr %16, align 4, !tbaa !27
  br label %172

120:                                              ; preds = %104
  %121 = load ptr, ptr %6, align 8, !tbaa !23
  %122 = load i64, ptr %10, align 8, !tbaa !26
  %123 = getelementptr inbounds nuw i8, ptr %121, i64 %122
  %124 = load i8, ptr %123, align 1, !tbaa !35
  %125 = zext i8 %124 to i32
  %126 = and i32 %125, 8
  %127 = icmp eq i32 %126, 0
  br i1 %127, label %128, label %136

128:                                              ; preds = %120
  %129 = load ptr, ptr %6, align 8, !tbaa !23
  %130 = load i64, ptr %10, align 8, !tbaa !26
  %131 = getelementptr inbounds nuw i8, ptr %129, i64 %130
  %132 = load i8, ptr %131, align 1, !tbaa !35
  %133 = zext i8 %132 to i32
  %134 = and i32 %133, 7
  %135 = sext i32 %134 to i64
  store i64 %135, ptr %12, align 8, !tbaa !26
  store i32 3, ptr %16, align 4, !tbaa !27
  br label %171

136:                                              ; preds = %120
  %137 = load ptr, ptr %6, align 8, !tbaa !23
  %138 = load i64, ptr %10, align 8, !tbaa !26
  %139 = getelementptr inbounds nuw i8, ptr %137, i64 %138
  %140 = load i8, ptr %139, align 1, !tbaa !35
  %141 = zext i8 %140 to i32
  %142 = and i32 %141, 4
  %143 = icmp eq i32 %142, 0
  br i1 %143, label %144, label %152

144:                                              ; preds = %136
  %145 = load ptr, ptr %6, align 8, !tbaa !23
  %146 = load i64, ptr %10, align 8, !tbaa !26
  %147 = getelementptr inbounds nuw i8, ptr %145, i64 %146
  %148 = load i8, ptr %147, align 1, !tbaa !35
  %149 = zext i8 %148 to i32
  %150 = and i32 %149, 3
  %151 = sext i32 %150 to i64
  store i64 %151, ptr %12, align 8, !tbaa !26
  store i32 4, ptr %16, align 4, !tbaa !27
  br label %170

152:                                              ; preds = %136
  %153 = load ptr, ptr %6, align 8, !tbaa !23
  %154 = load i64, ptr %10, align 8, !tbaa !26
  %155 = getelementptr inbounds nuw i8, ptr %153, i64 %154
  %156 = load i8, ptr %155, align 1, !tbaa !35
  %157 = zext i8 %156 to i32
  %158 = and i32 %157, 2
  %159 = icmp eq i32 %158, 0
  br i1 %159, label %160, label %168

160:                                              ; preds = %152
  %161 = load ptr, ptr %6, align 8, !tbaa !23
  %162 = load i64, ptr %10, align 8, !tbaa !26
  %163 = getelementptr inbounds nuw i8, ptr %161, i64 %162
  %164 = load i8, ptr %163, align 1, !tbaa !35
  %165 = zext i8 %164 to i32
  %166 = and i32 %165, 1
  %167 = sext i32 %166 to i64
  store i64 %167, ptr %12, align 8, !tbaa !26
  store i32 5, ptr %16, align 4, !tbaa !27
  br label %169

168:                                              ; preds = %152
  store i32 -1, ptr %5, align 4
  store i32 1, ptr %15, align 4
  br label %253

169:                                              ; preds = %160
  br label %170

170:                                              ; preds = %169, %144
  br label %171

171:                                              ; preds = %170, %128
  br label %172

172:                                              ; preds = %171, %112
  br label %173

173:                                              ; preds = %172, %96
  store i32 0, ptr %11, align 4, !tbaa !27
  br label %174

174:                                              ; preds = %239, %173
  %175 = load i32, ptr %11, align 4, !tbaa !27
  %176 = load i32, ptr %16, align 4, !tbaa !27
  %177 = icmp slt i32 %175, %176
  br i1 %177, label %178, label %242

178:                                              ; preds = %174
  %179 = load i64, ptr %10, align 8, !tbaa !26
  %180 = add i64 %179, 1
  store i64 %180, ptr %10, align 8, !tbaa !26
  %181 = load i64, ptr %10, align 8, !tbaa !26
  %182 = load i64, ptr %7, align 8, !tbaa !26
  %183 = icmp uge i64 %181, %182
  br i1 %183, label %184, label %185

184:                                              ; preds = %178
  store i32 8, ptr %15, align 4
  br label %253

185:                                              ; preds = %178
  %186 = load i32, ptr %11, align 4, !tbaa !27
  %187 = icmp eq i32 %186, 0
  br i1 %187, label %188, label %211

188:                                              ; preds = %185
  %189 = load ptr, ptr %6, align 8, !tbaa !23
  %190 = load i64, ptr %10, align 8, !tbaa !26
  %191 = getelementptr inbounds nuw i8, ptr %189, i64 %190
  %192 = load i8, ptr %191, align 1, !tbaa !35
  %193 = zext i8 %192 to i32
  %194 = load ptr, ptr %18, align 8, !tbaa !36
  %195 = getelementptr inbounds nuw %struct.accept_range, ptr %194, i32 0, i32 0
  %196 = load i8, ptr %195, align 1, !tbaa !38
  %197 = zext i8 %196 to i32
  %198 = icmp slt i32 %193, %197
  br i1 %198, label %210, label %199

199:                                              ; preds = %188
  %200 = load ptr, ptr %6, align 8, !tbaa !23
  %201 = load i64, ptr %10, align 8, !tbaa !26
  %202 = getelementptr inbounds nuw i8, ptr %200, i64 %201
  %203 = load i8, ptr %202, align 1, !tbaa !35
  %204 = zext i8 %203 to i32
  %205 = load ptr, ptr %18, align 8, !tbaa !36
  %206 = getelementptr inbounds nuw %struct.accept_range, ptr %205, i32 0, i32 1
  %207 = load i8, ptr %206, align 1, !tbaa !40
  %208 = zext i8 %207 to i32
  %209 = icmp sgt i32 %204, %208
  br i1 %209, label %210, label %211

210:                                              ; preds = %199, %188
  store i32 -1, ptr %5, align 4
  store i32 1, ptr %15, align 4
  br label %253

211:                                              ; preds = %199, %185
  %212 = load ptr, ptr %6, align 8, !tbaa !23
  %213 = load i64, ptr %10, align 8, !tbaa !26
  %214 = getelementptr inbounds nuw i8, ptr %212, i64 %213
  %215 = load i8, ptr %214, align 1, !tbaa !35
  %216 = zext i8 %215 to i32
  %217 = and i32 %216, 128
  %218 = icmp eq i32 %217, 0
  br i1 %218, label %227, label %219

219:                                              ; preds = %211
  %220 = load ptr, ptr %6, align 8, !tbaa !23
  %221 = load i64, ptr %10, align 8, !tbaa !26
  %222 = getelementptr inbounds nuw i8, ptr %220, i64 %221
  %223 = load i8, ptr %222, align 1, !tbaa !35
  %224 = zext i8 %223 to i32
  %225 = and i32 %224, 64
  %226 = icmp ne i32 %225, 0
  br i1 %226, label %227, label %228

227:                                              ; preds = %219, %211
  store i32 -1, ptr %5, align 4
  store i32 1, ptr %15, align 4
  br label %253

228:                                              ; preds = %219
  %229 = load i64, ptr %12, align 8, !tbaa !26
  %230 = shl i64 %229, 6
  %231 = load ptr, ptr %6, align 8, !tbaa !23
  %232 = load i64, ptr %10, align 8, !tbaa !26
  %233 = getelementptr inbounds nuw i8, ptr %231, i64 %232
  %234 = load i8, ptr %233, align 1, !tbaa !35
  %235 = zext i8 %234 to i32
  %236 = and i32 %235, 63
  %237 = sext i32 %236 to i64
  %238 = add i64 %230, %237
  store i64 %238, ptr %12, align 8, !tbaa !26
  br label %239

239:                                              ; preds = %228
  %240 = load i32, ptr %11, align 4, !tbaa !27
  %241 = add nsw i32 %240, 1
  store i32 %241, ptr %11, align 4, !tbaa !27
  br label %174

242:                                              ; preds = %174
  %243 = load ptr, ptr %8, align 8, !tbaa !13
  %244 = icmp ne ptr %243, null
  br i1 %244, label %245, label %252

245:                                              ; preds = %242
  %246 = load i64, ptr %12, align 8, !tbaa !26
  %247 = load ptr, ptr %8, align 8, !tbaa !13
  %248 = load ptr, ptr %9, align 8, !tbaa !13
  %249 = load i64, ptr %248, align 8, !tbaa !26
  %250 = add i64 %249, 1
  store i64 %250, ptr %248, align 8, !tbaa !26
  %251 = getelementptr inbounds nuw i64, ptr %247, i64 %249
  store i64 %246, ptr %251, align 8, !tbaa !26
  br label %252

252:                                              ; preds = %245, %242
  store i32 1, ptr %13, align 4, !tbaa !27
  store i32 0, ptr %15, align 4
  br label %253

253:                                              ; preds = %184, %252, %227, %210, %168, %87
  call void @llvm.lifetime.end.p0(i64 8, ptr %18) #6
  call void @llvm.lifetime.end.p0(i64 1, ptr %17) #6
  call void @llvm.lifetime.end.p0(i64 4, ptr %16) #6
  %254 = load i32, ptr %15, align 4
  switch i32 %254, label %272 [
    i32 0, label %255
    i32 8, label %262
  ]

255:                                              ; preds = %253
  br label %256

256:                                              ; preds = %255
  br label %257

257:                                              ; preds = %256, %61
  br label %258

258:                                              ; preds = %257
  %259 = load i64, ptr %10, align 8, !tbaa !26
  %260 = add i64 %259, 1
  store i64 %260, ptr %10, align 8, !tbaa !26
  br label %24

261:                                              ; preds = %24
  br label %262

262:                                              ; preds = %261, %253
  %263 = load i32, ptr %14, align 4, !tbaa !27
  %264 = icmp ne i32 %263, 0
  br i1 %264, label %265, label %266

265:                                              ; preds = %262
  br label %270

266:                                              ; preds = %262
  %267 = load i32, ptr %13, align 4, !tbaa !27
  %268 = icmp ne i32 %267, 0
  %269 = select i1 %268, i32 2, i32 1
  br label %270

270:                                              ; preds = %266, %265
  %271 = phi i32 [ 0, %265 ], [ %269, %266 ]
  store i32 %271, ptr %5, align 4
  store i32 1, ptr %15, align 4
  br label %272

272:                                              ; preds = %270, %253, %70
  call void @llvm.lifetime.end.p0(i64 4, ptr %14) #6
  call void @llvm.lifetime.end.p0(i64 4, ptr %13) #6
  call void @llvm.lifetime.end.p0(i64 8, ptr %12) #6
  call void @llvm.lifetime.end.p0(i64 4, ptr %11) #6
  call void @llvm.lifetime.end.p0(i64 8, ptr %10) #6
  %273 = load i32, ptr %5, align 4
  ret i32 %273
}