; Function Attrs: nofree norecurse nosync nounwind memory(argmem: readwrite) uwtable
define hidden range(i32 -1, 3) i32 @file_looks_utf8(ptr noundef readonly captures(none) %0, i64 noundef %1, ptr noundef writeonly captures(address_is_null) %2, ptr noundef captures(none) %3) local_unnamed_addr #4 {
  %.not = icmp eq ptr %2, null
  br i1 %.not, label %6, label %5

5:                                                ; preds = %4
  store i64 0, ptr %3, align 8, !tbaa !16
  br label %6

6:                                                ; preds = %5, %4
  %.not123 = icmp eq i64 %1, 0
  br i1 %.not123, label %.thread, label %.lr.ph

.lr.ph:                                           ; preds = %6, %.thread98
  %.067121 = phi i64 [ %73, %.thread98 ], [ 0, %6 ]
  %.073120 = phi i32 [ %.275, %.thread98 ], [ 0, %6 ]
  %.076119 = phi i32 [ %.379, %.thread98 ], [ 0, %6 ]
  %7 = getelementptr inbounds nuw i8, ptr %0, i64 %.067121
  %8 = load i8, ptr %7, align 1, !tbaa !26
  %9 = zext i8 %8 to i32
  %10 = icmp sgt i8 %8, -1
  br i1 %10, label %11, label %15

11:                                               ; preds = %.lr.ph
  %12 = zext nneg i8 %8 to i64
  %13 = getelementptr inbounds nuw [256 x i8], ptr @text_chars, i64 0, i64 %12
  %14 = load i8, ptr %13, align 1, !tbaa !26
  %.not93 = icmp eq i8 %14, 1
  %spec.select = select i1 %.not93, i32 %.073120, i32 1
  br i1 %.not, label %.thread98, label %.thread98.sink.split

15:                                               ; preds = %.lr.ph
  %16 = and i32 %9, 64
  %17 = icmp eq i32 %16, 0
  br i1 %17, label %.thread, label %18

18:                                               ; preds = %15
  %19 = zext i8 %8 to i64
  %20 = getelementptr inbounds nuw [256 x i8], ptr @first, i64 0, i64 %19
  %21 = load i8, ptr %20, align 1, !tbaa !26
  %22 = lshr i8 %21, 4
  %23 = zext nneg i8 %22 to i64
  %24 = getelementptr inbounds nuw [16 x %struct.accept_range], ptr @accept_ranges, i64 0, i64 %23
  %25 = icmp eq i8 %21, -15
  br i1 %25, label %.thread, label %26

26:                                               ; preds = %18
  %27 = and i32 %9, 32
  %28 = icmp eq i32 %27, 0
  br i1 %28, label %41, label %29

29:                                               ; preds = %26
  %30 = and i32 %9, 16
  %31 = icmp eq i32 %30, 0
  br i1 %31, label %41, label %32

32:                                               ; preds = %29
  %33 = and i32 %9, 8
  %34 = icmp eq i32 %33, 0
  br i1 %34, label %41, label %35

35:                                               ; preds = %32
  %36 = and i32 %9, 4
  %37 = icmp eq i32 %36, 0
  br i1 %37, label %41, label %38

38:                                               ; preds = %35
  %39 = and i32 %9, 2
  %40 = icmp eq i32 %39, 0
  br i1 %40, label %41, label %.thread

41:                                               ; preds = %38, %35, %32, %29, %26
  %.sink = phi i32 [ 31, %26 ], [ 15, %29 ], [ 7, %32 ], [ 3, %35 ], [ 1, %38 ]
  %.071 = phi i32 [ 1, %26 ], [ 2, %29 ], [ 3, %32 ], [ 4, %35 ], [ 5, %38 ]
  %42 = and i32 %.sink, %9
  %.080 = zext nneg i32 %42 to i64
  %43 = getelementptr inbounds nuw i8, ptr %24, i64 1
  %44 = add nuw i64 %.067121, 1
  %45 = add nsw i32 %.071, -1
  %46 = zext nneg i32 %45 to i64
  %47 = add i64 %44, %46
  br label %48

48:                                               ; preds = %41, %63
  %.269118 = phi i64 [ %.067121, %41 ], [ %49, %63 ]
  %.181117 = phi i64 [ %.080, %41 ], [ %67, %63 ]
  %.082116 = phi i32 [ 0, %41 ], [ %68, %63 ]
  %49 = add nuw i64 %.269118, 1
  %.not89 = icmp ult i64 %49, %1
  br i1 %.not89, label %50, label %.loopexit

50:                                               ; preds = %48
  %51 = icmp eq i32 %.082116, 0
  %52 = getelementptr inbounds nuw i8, ptr %0, i64 %49
  %53 = load i8, ptr %52, align 1, !tbaa !26
  br i1 %51, label %54, label %._crit_edge

54:                                               ; preds = %50
  %55 = load i8, ptr %24, align 2, !tbaa !27
  %56 = icmp ult i8 %53, %55
  br i1 %56, label %.thread, label %57

57:                                               ; preds = %54
  %58 = load i8, ptr %43, align 1, !tbaa !29
  %59 = icmp ugt i8 %53, %58
  br i1 %59, label %.thread, label %._crit_edge

._crit_edge:                                      ; preds = %50, %57
  %60 = zext i8 %53 to i32
  %61 = icmp slt i8 %53, 0
  %62 = and i32 %60, 64
  %.not90 = icmp eq i32 %62, 0
  %or.cond = and i1 %61, %.not90
  br i1 %or.cond, label %63, label %.thread

63:                                               ; preds = %._crit_edge
  %64 = shl i64 %.181117, 6
  %65 = and i32 %60, 63
  %66 = zext nneg i32 %65 to i64
  %67 = or disjoint i64 %64, %66
  %68 = add nuw nsw i32 %.082116, 1
  %exitcond.not = icmp eq i32 %68, %.071
  br i1 %exitcond.not, label %69, label %48

69:                                               ; preds = %63
  br i1 %.not, label %.thread98, label %.thread98.sink.split

.thread98.sink.split:                             ; preds = %69, %11
  %.lcssa.sink = phi i64 [ %12, %11 ], [ %67, %69 ]
  %.379.ph = phi i32 [ %.076119, %11 ], [ 1, %69 ]
  %.275.ph = phi i32 [ %spec.select, %11 ], [ %.073120, %69 ]
  %.370.ph = phi i64 [ %.067121, %11 ], [ %47, %69 ]
  %70 = load i64, ptr %3, align 8, !tbaa !16
  %71 = add i64 %70, 1
  store i64 %71, ptr %3, align 8, !tbaa !16
  %72 = getelementptr inbounds nuw i64, ptr %2, i64 %70
  store i64 %.lcssa.sink, ptr %72, align 8, !tbaa !16
  br label %.thread98

.thread98:                                        ; preds = %.thread98.sink.split, %69, %11
  %.379 = phi i32 [ %.076119, %11 ], [ 1, %69 ], [ %.379.ph, %.thread98.sink.split ]
  %.275 = phi i32 [ %spec.select, %11 ], [ %.073120, %69 ], [ %.275.ph, %.thread98.sink.split ]
  %.370 = phi i64 [ %.067121, %11 ], [ %47, %69 ], [ %.370.ph, %.thread98.sink.split ]
  %73 = add i64 %.370, 1
  %74 = icmp ult i64 %73, %1
  br i1 %74, label %.lr.ph, label %.loopexit

.loopexit:                                        ; preds = %.thread98, %48
  %.076115 = phi i32 [ %.076119, %48 ], [ %.379, %.thread98 ]
  %.073111 = phi i32 [ %.073120, %48 ], [ %.275, %.thread98 ]
  %.073111.fr = freeze i32 %.073111
  %.not91 = icmp eq i32 %.073111.fr, 0
  %.076115.fr = freeze i32 %.076115
  %.not92 = icmp eq i32 %.076115.fr, 0
  %. = select i1 %.not92, i32 1, i32 2
  %spec.select159 = select i1 %.not91, i32 %., i32 0
  br label %.thread

.thread:                                          ; preds = %38, %18, %15, %._crit_edge, %54, %57, %.loopexit, %6
  %.1 = phi i32 [ 1, %6 ], [ %spec.select159, %.loopexit ], [ -1, %57 ], [ -1, %54 ], [ -1, %._crit_edge ], [ -1, %15 ], [ -1, %18 ], [ -1, %38 ]
  ret i32 %.1
}